; Function Attrs: mustprogress uwtable
define dso_local void @_ZN28btSoftMultiBodyDynamicsWorld14debugDrawWorldEv(ptr noundef nonnull align 8 dereferenceable(1025) %0) unnamed_addr #0 align 2 {
  tail call void @_ZN24btMultiBodyDynamicsWorld14debugDrawWorldEv(ptr noundef nonnull align 8 dereferenceable(848) %0)
  %2 = load ptr, ptr %0, align 8, !tbaa !4
  %3 = getelementptr inbounds nuw i8, ptr %2, i64 40
  %4 = load ptr, ptr %3, align 8
  %5 = tail call noundef ptr %4(ptr noundef nonnull align 8 dereferenceable(121) %0)
  %.not = icmp eq ptr %5, null
  br i1 %.not, label %.loopexit, label %.preheader

.preheader:                                       ; preds = %1
  %6 = getelementptr inbounds nuw i8, ptr %0, i64 852
  %7 = load i32, ptr %6, align 4, !tbaa !16
  %8 = icmp sgt i32 %7, 0
  br i1 %8, label %.lr.ph, label %.loopexit

.lr.ph:                                           ; preds = %.preheader
  %9 = getelementptr inbounds nuw i8, ptr %0, i64 864
  %10 = getelementptr inbounds nuw i8, ptr %0, i64 112
  %11 = getelementptr inbounds nuw i8, ptr %0, i64 880
  %12 = getelementptr inbounds nuw i8, ptr %0, i64 884
  %13 = getelementptr inbounds nuw i8, ptr %0, i64 885
  %14 = getelementptr inbounds nuw i8, ptr %0, i64 886
  br label %15

15:                                               ; preds = %.lr.ph, %60
  %indvars.iv = phi i64 [ 0, %.lr.ph ], [ %indvars.iv.next, %60 ]
  %16 = load ptr, ptr %9, align 8, !tbaa !15
  %17 = getelementptr inbounds nuw ptr, ptr %16, i64 %indvars.iv
  %18 = load ptr, ptr %17, align 8, !tbaa !116
  %19 = load ptr, ptr %0, align 8, !tbaa !4
  %20 = getelementptr inbounds nuw i8, ptr %19, i64 40
  %21 = load ptr, ptr %20, align 8
  %22 = tail call noundef ptr %21(ptr noundef nonnull align 8 dereferenceable(121) %0)
  %.not9 = icmp eq ptr %22, null
  br i1 %.not9, label %37, label %23

23:                                               ; preds = %15
  %24 = load ptr, ptr %0, align 8, !tbaa !4
  %25 = getelementptr inbounds nuw i8, ptr %24, i64 40
  %26 = load ptr, ptr %25, align 8
  %27 = tail call noundef ptr %26(ptr noundef nonnull align 8 dereferenceable(121) %0)
  %28 = load ptr, ptr %27, align 8, !tbaa !4
  %29 = getelementptr inbounds nuw i8, ptr %28, i64 112
  %30 = load ptr, ptr %29, align 8
  %31 = tail call noundef i32 %30(ptr noundef nonnull align 8 dereferenceable(8) %27)
  %32 = and i32 %31, 1
  %.not10 = icmp eq i32 %32, 0
  br i1 %.not10, label %37, label %33

33:                                               ; preds = %23
  %34 = load ptr, ptr %10, align 8, !tbaa !212
  tail call void @_ZN17btSoftBodyHelpers9DrawFrameEP10btSoftBodyP12btIDebugDraw(ptr noundef %18, ptr noundef %34)
  %35 = load ptr, ptr %10, align 8, !tbaa !212
  %36 = load i32, ptr %11, align 8, !tbaa !87
  tail call void @_ZN17btSoftBodyHelpers4DrawEP10btSoftBodyP12btIDebugDrawi(ptr noundef %18, ptr noundef %35, i32 noundef %36)
  br label %37

37:                                               ; preds = %33, %23, %15
  %38 = load ptr, ptr %10, align 8, !tbaa !212
  %.not11 = icmp eq ptr %38, null
  br i1 %.not11, label %60, label %39

39:                                               ; preds = %37
  %40 = load ptr, ptr %38, align 8, !tbaa !4
  %41 = getelementptr inbounds nuw i8, ptr %40, i64 112
  %42 = load ptr, ptr %41, align 8
  %43 = tail call noundef i32 %42(ptr noundef nonnull align 8 dereferenceable(8) %38)
  %44 = and i32 %43, 2
  %.not12 = icmp eq i32 %44, 0
  br i1 %.not12, label %60, label %45

45:                                               ; preds = %39
  %46 = load i8, ptr %12, align 4, !tbaa !88, !range !112, !noundef !113
  %47 = trunc nuw i8 %46 to i1
  br i1 %47, label %48, label %50

48:                                               ; preds = %45
  %49 = load ptr, ptr %10, align 8, !tbaa !212
  tail call void @_ZN17btSoftBodyHelpers12DrawNodeTreeEP10btSoftBodyP12btIDebugDrawii(ptr noundef %18, ptr noundef %49, i32 noundef 0, i32 noundef -1)
  br label %50

50:                                               ; preds = %48, %45
  %51 = load i8, ptr %13, align 1, !tbaa !89, !range !112, !noundef !113
  %52 = trunc nuw i8 %51 to i1
  br i1 %52, label %53, label %55

53:                                               ; preds = %50
  %54 = load ptr, ptr %10, align 8, !tbaa !212
  tail call void @_ZN17btSoftBodyHelpers12DrawFaceTreeEP10btSoftBodyP12btIDebugDrawii(ptr noundef %18, ptr noundef %54, i32 noundef 0, i32 noundef -1)
  br label %55

55:                                               ; preds = %53, %50
  %56 = load i8, ptr %14, align 2, !tbaa !90, !range !112, !noundef !113
  %57 = trunc nuw i8 %56 to i1
  br i1 %57, label %58, label %60

58:                                               ; preds = %55
  %59 = load ptr, ptr %10, align 8, !tbaa !212
  tail call void @_ZN17btSoftBodyHelpers15DrawClusterTreeEP10btSoftBodyP12btIDebugDrawii(ptr noundef %18, ptr noundef %59, i32 noundef 0, i32 noundef -1)
  br label %60

60:                                               ; preds = %55, %58, %39, %37
  %indvars.iv.next = add nuw nsw i64 %indvars.iv, 1
  %61 = load i32, ptr %6, align 4, !tbaa !16
  %62 = sext i32 %61 to i64
  %63 = icmp slt i64 %indvars.iv.next, %62
  br i1 %63, label %15, label %.loopexit, !llvm.loop !213

.loopexit:                                        ; preds = %60, %.preheader, %1
  ret void
}